target datalayout = "e-m:e-p270:32:32-p271:32:32-p272:64:64-i64:64-i128:128-f80:128-n8:16:32:64-S128"
target triple = "x86_64-pc-linux-gnu"

%struct.H5D_chunk_rec_t = type { [33 x i64], i32, i32, i64 }

@H5D_init_g = external global i8, align 1
@H5_libterm_g = external global i8, align 1
@.str.2 = private unnamed_addr constant [103 x i8] c"generated/home/dtcxzyw/WorkSpace/Projects/compilers/llvm-opt-benchmark/bench/hdf5/hdf5/src/H5Dearray.c\00", align 1
@H5E_DATASET_g = external global i64, align 8
@H5E_CANTFREE_g = external global i64, align 8
@.str.38 = private unnamed_addr constant [21 x i8] c"unable to free chunk\00", align 1
@__func__.H5D__earray_idx_delete_cb = private unnamed_addr constant [26 x i8] c"H5D__earray_idx_delete_cb\00", align 1

; Function Attrs: nounwind uwtable
define internal i32 @H5D__earray_idx_delete_cb(ptr noundef %0, ptr noundef %1) #0 {
  %3 = alloca ptr, align 8
  %4 = alloca ptr, align 8
  %5 = alloca ptr, align 8
  %6 = alloca i32, align 4
  %7 = alloca i8, align 1
  store ptr %0, ptr %3, align 8, !tbaa !134
  store ptr %1, ptr %4, align 8, !tbaa !80
  call void @llvm.lifetime.start.p0(i64 8, ptr %5) #8
  %8 = load ptr, ptr %4, align 8, !tbaa !80
  store ptr %8, ptr %5, align 8, !tbaa !116
  call void @llvm.lifetime.start.p0(i64 4, ptr %6) #8
  store i32 0, ptr %6, align 4, !tbaa !12
  call void @llvm.lifetime.start.p0(i64 1, ptr %7) #8
  store i8 0, ptr %7, align 1, !tbaa !14
  %9 = load i8, ptr @H5D_init_g, align 1, !tbaa !14, !range !16, !noundef !17
  %10 = trunc i8 %9 to i1
  br i1 %10, label %15, label %11

11:                                               ; preds = %2
  %12 = load i8, ptr @H5_libterm_g, align 1, !tbaa !14, !range !16, !noundef !17
  %13 = trunc i8 %12 to i1
  %14 = xor i1 %13, true
  br label %15

15:                                               ; preds = %11, %2
  %16 = phi i1 [ true, %2 ], [ %14, %11 ]
  %17 = xor i1 %16, true
  %18 = xor i1 %17, true
  %19 = zext i1 %18 to i32
  %20 = sext i32 %19 to i64
  %21 = call i64 @llvm.expect.i64(i64 %20, i64 1)
  %22 = icmp ne i64 %21, 0
  br i1 %22, label %23, label %55

23:                                               ; preds = %15
  %24 = load ptr, ptr %5, align 8, !tbaa !116
  %25 = load ptr, ptr %3, align 8, !tbaa !134
  %26 = getelementptr inbounds nuw %struct.H5D_chunk_rec_t, ptr %25, i32 0, i32 3
  %27 = load i64, ptr %26, align 8, !tbaa !136
  %28 = load ptr, ptr %3, align 8, !tbaa !134
  %29 = getelementptr inbounds nuw %struct.H5D_chunk_rec_t, ptr %28, i32 0, i32 1
  %30 = load i32, ptr %29, align 8, !tbaa !137
  %31 = zext i32 %30 to i64
  %32 = call i32 @H5MF_xfree(ptr noundef %24, i32 noundef 3, i64 noundef %27, i64 noundef %31)
  %33 = icmp slt i32 %32, 0
  br i1 %33, label %34, label %53

34:                                               ; preds = %23
  br label %35

35:                                               ; preds = %34
  br label %36

36:                                               ; preds = %35
  br label %37

37:                                               ; preds = %36
  %38 = load i64, ptr @H5E_DATASET_g, align 8, !tbaa !10
  %39 = load i64, ptr @H5E_CANTFREE_g, align 8, !tbaa !10
  %40 = call i32 (ptr, ptr, i32, i64, i64, ptr, ...) @H5E_printf_stack(ptr noundef @.str.2, ptr noundef @__func__.H5D__earray_idx_delete_cb, i32 noundef 1508, i64 noundef %38, i64 noundef %39, ptr noundef @.str.38)
  br label %41

41:                                               ; preds = %37
  br label %42

42:                                               ; preds = %41
  store i8 1, ptr %7, align 1, !tbaa !14
  %43 = load i8, ptr %7, align 1, !tbaa !14, !range !16, !noundef !17
  %44 = trunc i8 %43 to i1
  %45 = zext i1 %44 to i8
  store i8 %45, ptr %7, align 1, !tbaa !14
  br label %46

46:                                               ; preds = %42
  br label %47

47:                                               ; preds = %46
  br label %48

48:                                               ; preds = %47
  store i32 -1, ptr %6, align 4, !tbaa !12
  br label %54

49:                                               ; No predecessors!
  br label %50

50:                                               ; preds = %49
  br label %51

51:                                               ; preds = %50
  br label %52

52:                                               ; preds = %51
  br label %53

53:                                               ; preds = %52, %23
  br label %54

54:                                               ; preds = %53, %48
  br label %55

55:                                               ; preds = %54, %15
  %56 = load i32, ptr %6, align 4, !tbaa !12
  call void @llvm.lifetime.end.p0(i64 1, ptr %7) #8
  call void @llvm.lifetime.end.p0(i64 4, ptr %6) #8
  call void @llvm.lifetime.end.p0(i64 8, ptr %5) #8
  ret i32 %56
}