; Function Attrs: nounwind uwtable
define internal range(i32 -1, 1) i32 @H5D__earray_idx_delete_cb(ptr noundef readonly captures(none) %0, ptr noundef %1) #0 {
  %3 = load i8, ptr @H5D_init_g, align 1, !tbaa !3, !range !7, !noundef !8
  %4 = trunc nuw i8 %3 to i1
  %5 = load i8, ptr @H5_libterm_g, align 1, !range !7
  %6 = trunc nuw i8 %5 to i1
  %7 = xor i1 %6, true
  %8 = select i1 %4, i1 true, i1 %7
  br i1 %8, label %9, label %21, !prof !9

9:                                                ; preds = %2
  %10 = getelementptr inbounds nuw i8, ptr %0, i64 272
  %11 = load i64, ptr %10, align 8, !tbaa !100
  %12 = getelementptr inbounds nuw i8, ptr %0, i64 264
  %13 = load i32, ptr %12, align 8, !tbaa !101
  %14 = zext i32 %13 to i64
  %15 = tail call i32 @H5MF_xfree(ptr noundef %1, i32 noundef 3, i64 noundef %11, i64 noundef %14) #11
  %16 = icmp slt i32 %15, 0
  br i1 %16, label %17, label %21

17:                                               ; preds = %9
  %18 = load i64, ptr @H5E_DATASET_g, align 8, !tbaa !10
  %19 = load i64, ptr @H5E_CANTFREE_g, align 8, !tbaa !10
  %20 = tail call i32 (ptr, ptr, i32, i64, i64, ptr, ...) @H5E_printf_stack(ptr noundef nonnull @.str.2, ptr noundef nonnull @__func__.H5D__earray_idx_delete_cb, i32 noundef 1508, i64 noundef %18, i64 noundef %19, ptr noundef nonnull @.str.38) #11
  br label %21

21:                                               ; preds = %17, %9, %2
  %.0 = phi i32 [ -1, %17 ], [ 0, %9 ], [ 0, %2 ]
  ret i32 %.0
}